; Function Attrs: mustprogress nounwind uwtable
define hidden void @_ZN7ElfFile14cleanup_tablesEv(ptr nocapture noundef nonnull align 8 dereferenceable(144) %0) local_unnamed_addr #0 align 2 {
  %2 = getelementptr inbounds i8, ptr %0, i64 40
  %3 = load ptr, ptr %2, align 8
  %.not = icmp eq ptr %3, null
  br i1 %.not, label %5, label %4

4:                                                ; preds = %1
  tail call void @_ZN14ElfStringTableD1Ev(ptr noundef nonnull align 8 dereferenceable(108) %3) #15
  tail call void @_Z8FreeHeapPv(ptr noundef nonnull %3) #15
  store ptr null, ptr %2, align 8
  br label %5

5:                                                ; preds = %4, %1
  %6 = getelementptr inbounds i8, ptr %0, i64 32
  %7 = load ptr, ptr %6, align 8
  %.not3 = icmp eq ptr %7, null
  br i1 %.not3, label %9, label %8

8:                                                ; preds = %5
  tail call void @_ZN14ElfSymbolTableD1Ev(ptr noundef nonnull align 8 dereferenceable(100) %7) #15
  tail call void @_Z8FreeHeapPv(ptr noundef nonnull %7) #15
  store ptr null, ptr %6, align 8
  br label %9

9:                                                ; preds = %8, %5
  %10 = getelementptr inbounds i8, ptr %0, i64 56
  %11 = load ptr, ptr %10, align 8
  %.not4 = icmp eq ptr %11, null
  br i1 %.not4, label %13, label %12

12:                                               ; preds = %9
  tail call void @_ZN16ElfFuncDescTableD1Ev(ptr noundef nonnull align 8 dereferenceable(96) %11) #15
  tail call void @_Z8FreeHeapPv(ptr noundef nonnull %11) #15
  store ptr null, ptr %10, align 8
  br label %13

13:                                               ; preds = %12, %9
  ret void
}